target datalayout = "e-m:e-p270:32:32-p271:32:32-p272:64:64-i64:64-i128:128-f80:128-n8:16:32:64-S128"
target triple = "x86_64-pc-linux-gnu"

@environ = external global ptr, align 8

; Function Attrs: nounwind uwtable
define internal ptr @mi_get_environ() #0 {
  %1 = load ptr, ptr @environ, align 8, !tbaa !52
  ret ptr %1
}

; Function Attrs: nounwind uwtable
define hidden zeroext i1 @_mi_prim_getenv(ptr noundef %0, ptr noundef %1, i64 noundef %2) #0 {
  %4 = alloca i1, align 1
  %5 = alloca ptr, align 8
  %6 = alloca ptr, align 8
  %7 = alloca i64, align 8
  %8 = alloca i64, align 8
  %9 = alloca i32, align 4
  %10 = alloca ptr, align 8
  %11 = alloca i32, align 4
  %12 = alloca ptr, align 8
  store ptr %0, ptr %5, align 8, !tbaa !33
  store ptr %1, ptr %6, align 8, !tbaa !33
  store i64 %2, ptr %7, align 8, !tbaa !8
  %13 = load ptr, ptr %5, align 8, !tbaa !33
  %14 = icmp eq ptr %13, null
  br i1 %14, label %15, label %16

15:                                               ; preds = %3
  store i1 false, ptr %4, align 1
  br label %78

16:                                               ; preds = %3
  call void @llvm.lifetime.start.p0(i64 8, ptr %8) #6
  %17 = load ptr, ptr %5, align 8, !tbaa !33
  %18 = call i64 @_mi_strlen(ptr noundef %17) #8
  store i64 %18, ptr %8, align 8, !tbaa !8
  %19 = load i64, ptr %8, align 8, !tbaa !8
  %20 = icmp eq i64 %19, 0
  br i1 %20, label %21, label %22

21:                                               ; preds = %16
  store i1 false, ptr %4, align 1
  store i32 1, ptr %9, align 4
  br label %77

22:                                               ; preds = %16
  call void @llvm.lifetime.start.p0(i64 8, ptr %10) #6
  %23 = call ptr @mi_get_environ() #8
  store ptr %23, ptr %10, align 8, !tbaa !52
  %24 = load ptr, ptr %10, align 8, !tbaa !52
  %25 = icmp eq ptr %24, null
  br i1 %25, label %26, label %27

26:                                               ; preds = %22
  store i1 false, ptr %4, align 1
  store i32 1, ptr %9, align 4
  br label %76

27:                                               ; preds = %22
  call void @llvm.lifetime.start.p0(i64 4, ptr %11) #6
  store i32 0, ptr %11, align 4, !tbaa !19
  br label %28

28:                                               ; preds = %70, %27
  %29 = load i32, ptr %11, align 4, !tbaa !19
  %30 = icmp slt i32 %29, 10000
  br i1 %30, label %31, label %38

31:                                               ; preds = %28
  %32 = load ptr, ptr %10, align 8, !tbaa !52
  %33 = load i32, ptr %11, align 4, !tbaa !19
  %34 = sext i32 %33 to i64
  %35 = getelementptr inbounds ptr, ptr %32, i64 %34
  %36 = load ptr, ptr %35, align 8, !tbaa !33
  %37 = icmp ne ptr %36, null
  br label %38

38:                                               ; preds = %31, %28
  %39 = phi i1 [ false, %28 ], [ %37, %31 ]
  br i1 %39, label %41, label %40

40:                                               ; preds = %38
  store i32 2, ptr %9, align 4
  br label %73

41:                                               ; preds = %38
  call void @llvm.lifetime.start.p0(i64 8, ptr %12) #6
  %42 = load ptr, ptr %10, align 8, !tbaa !52
  %43 = load i32, ptr %11, align 4, !tbaa !19
  %44 = sext i32 %43 to i64
  %45 = getelementptr inbounds ptr, ptr %42, i64 %44
  %46 = load ptr, ptr %45, align 8, !tbaa !33
  store ptr %46, ptr %12, align 8, !tbaa !33
  %47 = load ptr, ptr %5, align 8, !tbaa !33
  %48 = load ptr, ptr %12, align 8, !tbaa !33
  %49 = load i64, ptr %8, align 8, !tbaa !8
  %50 = call i32 @_mi_strnicmp(ptr noundef %47, ptr noundef %48, i64 noundef %49) #8
  %51 = icmp eq i32 %50, 0
  br i1 %51, label %52, label %66

52:                                               ; preds = %41
  %53 = load ptr, ptr %12, align 8, !tbaa !33
  %54 = load i64, ptr %8, align 8, !tbaa !8
  %55 = getelementptr inbounds nuw i8, ptr %53, i64 %54
  %56 = load i8, ptr %55, align 1, !tbaa !22
  %57 = sext i8 %56 to i32
  %58 = icmp eq i32 %57, 61
  br i1 %58, label %59, label %66

59:                                               ; preds = %52
  %60 = load ptr, ptr %6, align 8, !tbaa !33
  %61 = load ptr, ptr %12, align 8, !tbaa !33
  %62 = load i64, ptr %8, align 8, !tbaa !8
  %63 = getelementptr inbounds nuw i8, ptr %61, i64 %62
  %64 = getelementptr inbounds i8, ptr %63, i64 1
  %65 = load i64, ptr %7, align 8, !tbaa !8
  call void @_mi_strlcpy(ptr noundef %60, ptr noundef %64, i64 noundef %65) #8
  store i1 true, ptr %4, align 1
  store i32 1, ptr %9, align 4
  br label %67

66:                                               ; preds = %52, %41
  store i32 0, ptr %9, align 4
  br label %67

67:                                               ; preds = %66, %59
  call void @llvm.lifetime.end.p0(i64 8, ptr %12) #6
  %68 = load i32, ptr %9, align 4
  switch i32 %68, label %73 [
    i32 0, label %69
  ]

69:                                               ; preds = %67
  br label %70

70:                                               ; preds = %69
  %71 = load i32, ptr %11, align 4, !tbaa !19
  %72 = add nsw i32 %71, 1
  store i32 %72, ptr %11, align 4, !tbaa !19
  br label %28, !llvm.loop !54

73:                                               ; preds = %67, %40
  call void @llvm.lifetime.end.p0(i64 4, ptr %11) #6
  %74 = load i32, ptr %9, align 4
  switch i32 %74, label %76 [
    i32 2, label %75
  ]

75:                                               ; preds = %73
  store i1 false, ptr %4, align 1
  store i32 1, ptr %9, align 4
  br label %76

76:                                               ; preds = %75, %73, %26
  call void @llvm.lifetime.end.p0(i64 8, ptr %10) #6
  br label %77

77:                                               ; preds = %76, %21
  call void @llvm.lifetime.end.p0(i64 8, ptr %8) #6
  br label %78

78:                                               ; preds = %77, %15
  %79 = load i1, ptr %4, align 1
  ret i1 %79
}