; Function Attrs: nounwind uwtable
define hidden noundef zeroext i1 @_mi_prim_getenv(ptr noundef %0, ptr noundef %1, i64 noundef %2) local_unnamed_addr #0 {
  %4 = icmp eq ptr %0, null
  br i1 %4, label %.loopexit, label %5

5:                                                ; preds = %3
  %6 = tail call i64 @_mi_strlen(ptr noundef nonnull %0) #10
  %7 = icmp eq i64 %6, 0
  br i1 %7, label %.loopexit, label %8

8:                                                ; preds = %5
  %9 = load ptr, ptr @environ, align 8, !tbaa !38
  %10 = icmp eq ptr %9, null
  br i1 %10, label %.loopexit, label %.preheader

.preheader:                                       ; preds = %8, %20
  %indvars.iv = phi i64 [ %indvars.iv.next, %20 ], [ 0, %8 ]
  %11 = getelementptr inbounds nuw ptr, ptr %9, i64 %indvars.iv
  %12 = load ptr, ptr %11, align 8, !tbaa !40
  %.not = icmp eq ptr %12, null
  br i1 %.not, label %.loopexit, label %13

13:                                               ; preds = %.preheader
  %14 = tail call i32 @_mi_strnicmp(ptr noundef nonnull %0, ptr noundef nonnull %12, i64 noundef %6) #10
  %15 = icmp eq i32 %14, 0
  br i1 %15, label %16, label %20

16:                                               ; preds = %13
  %17 = getelementptr inbounds nuw i8, ptr %12, i64 %6
  %18 = load i8, ptr %17, align 1, !tbaa !33
  %19 = icmp eq i8 %18, 61
  br i1 %19, label %.critedge, label %20

20:                                               ; preds = %16, %13
  %indvars.iv.next = add nuw nsw i64 %indvars.iv, 1
  %exitcond.not = icmp eq i64 %indvars.iv.next, 10000
  br i1 %exitcond.not, label %.loopexit, label %.preheader, !llvm.loop !42

.critedge:                                        ; preds = %16
  %21 = getelementptr inbounds nuw i8, ptr %12, i64 %6
  %22 = getelementptr inbounds nuw i8, ptr %21, i64 1
  tail call void @_mi_strlcpy(ptr noundef %1, ptr noundef nonnull %22, i64 noundef %2) #10
  br label %.loopexit

.loopexit:                                        ; preds = %20, %.preheader, %.critedge, %5, %8, %3
  %.0 = phi i1 [ false, %3 ], [ false, %5 ], [ false, %8 ], [ true, %.critedge ], [ false, %.preheader ], [ false, %20 ]
  ret i1 %.0
}